target datalayout = "e-m:e-p270:32:32-p271:32:32-p272:64:64-i64:64-i128:128-f80:128-n8:16:32:64-S128"
target triple = "x86_64-pc-linux-gnu"

%struct.GLNVGcontext = type { %struct.GLNVGshader, ptr, [2 x float], i32, i32, i32, i32, i32, i32, i32, i32, ptr, i32, i32, ptr, i32, i32, ptr, i32, i32, ptr, i32, i32, i32, i32, i32, i32, i32, %struct.GLNVGblend }
%struct.GLNVGshader = type { i32, i32, i32, [3 x i32] }
%struct.GLNVGblend = type { i32, i32, i32, i32 }
%struct.GLNVGcall = type { i32, i32, i32, i32, i32, i32, i32, %struct.GLNVGblend }
%struct.NVGcompositeOperationState = type { i32, i32, i32, i32 }
%struct.NVGpaint = type { [6 x float], [2 x float], float, float, %struct.NVGcolor, %struct.NVGcolor, i32 }
%struct.NVGcolor = type { %union.anon.26 }
%union.anon.26 = type { [4 x float] }
%struct.NVGvertex = type { float, float, float, float }
%struct.GLNVGfragUniforms = type { [12 x float], [12 x float], %struct.NVGcolor, %struct.NVGcolor, [2 x float], [2 x float], [2 x float], float, float, float, float, i32, i32 }

; Function Attrs: mustprogress nounwind uwtable
define internal noundef i32 @_ZL11glnvg__maxiii(i32 noundef %0, i32 noundef %1) #7 {
  %3 = alloca i32, align 4
  %4 = alloca i32, align 4
  store i32 %0, ptr %3, align 4
  store i32 %1, ptr %4, align 4
  %5 = load i32, ptr %3, align 4
  %6 = load i32, ptr %4, align 4
  %7 = icmp sgt i32 %5, %6
  br i1 %7, label %8, label %10

8:                                                ; preds = %2
  %9 = load i32, ptr %3, align 4
  br label %12

10:                                               ; preds = %2
  %11 = load i32, ptr %4, align 4
  br label %12

12:                                               ; preds = %10, %8
  %13 = phi i32 [ %9, %8 ], [ %11, %10 ]
  ret i32 %13
}

; Function Attrs: mustprogress nounwind uwtable
define internal noundef ptr @_ZL19nvg__fragUniformPtrP12GLNVGcontexti(ptr noundef %0, i32 noundef %1) #7 {
  %3 = alloca ptr, align 8
  %4 = alloca i32, align 4
  store ptr %0, ptr %3, align 8
  store i32 %1, ptr %4, align 4
  %5 = load ptr, ptr %3, align 8
  %6 = getelementptr inbounds %struct.GLNVGcontext, ptr %5, i32 0, i32 20
  %7 = load ptr, ptr %6, align 8
  %8 = load i32, ptr %4, align 4
  %9 = sext i32 %8 to i64
  %10 = getelementptr inbounds i8, ptr %7, i64 %9
  ret ptr %10
}

; Function Attrs: mustprogress nounwind uwtable
define internal noundef i32 @_ZL24glnvg__allocFragUniformsP12GLNVGcontexti(ptr noundef %0, i32 noundef %1) #7 {
  %3 = alloca i32, align 4
  %4 = alloca ptr, align 8
  %5 = alloca i32, align 4
  %6 = alloca i32, align 4
  %7 = alloca i32, align 4
  %8 = alloca ptr, align 8
  %9 = alloca i32, align 4
  store ptr %0, ptr %4, align 8
  store i32 %1, ptr %5, align 4
  store i32 0, ptr %6, align 4
  %10 = load ptr, ptr %4, align 8
  %11 = getelementptr inbounds %struct.GLNVGcontext, ptr %10, i32 0, i32 9
  %12 = load i32, ptr %11, align 8
  store i32 %12, ptr %7, align 4
  %13 = load ptr, ptr %4, align 8
  %14 = getelementptr inbounds %struct.GLNVGcontext, ptr %13, i32 0, i32 22
  %15 = load i32, ptr %14, align 4
  %16 = load i32, ptr %5, align 4
  %17 = add nsw i32 %15, %16
  %18 = load ptr, ptr %4, align 8
  %19 = getelementptr inbounds %struct.GLNVGcontext, ptr %18, i32 0, i32 21
  %20 = load i32, ptr %19, align 8
  %21 = icmp sgt i32 %17, %20
  br i1 %21, label %22, label %52

22:                                               ; preds = %2
  %23 = load ptr, ptr %4, align 8
  %24 = getelementptr inbounds %struct.GLNVGcontext, ptr %23, i32 0, i32 22
  %25 = load i32, ptr %24, align 4
  %26 = load i32, ptr %5, align 4
  %27 = add nsw i32 %25, %26
  %28 = call noundef i32 @_ZL11glnvg__maxiii(i32 noundef %27, i32 noundef 128)
  %29 = load ptr, ptr %4, align 8
  %30 = getelementptr inbounds %struct.GLNVGcontext, ptr %29, i32 0, i32 21
  %31 = load i32, ptr %30, align 8
  %32 = sdiv i32 %31, 2
  %33 = add nsw i32 %28, %32
  store i32 %33, ptr %9, align 4
  %34 = load ptr, ptr %4, align 8
  %35 = getelementptr inbounds %struct.GLNVGcontext, ptr %34, i32 0, i32 20
  %36 = load ptr, ptr %35, align 8
  %37 = load i32, ptr %7, align 4
  %38 = load i32, ptr %9, align 4
  %39 = mul nsw i32 %37, %38
  %40 = sext i32 %39 to i64
  %41 = call ptr @realloc(ptr noundef %36, i64 noundef %40) #22
  store ptr %41, ptr %8, align 8
  %42 = load ptr, ptr %8, align 8
  %43 = icmp eq ptr %42, null
  br i1 %43, label %44, label %45

44:                                               ; preds = %22
  store i32 -1, ptr %3, align 4
  br label %64

45:                                               ; preds = %22
  %46 = load ptr, ptr %8, align 8
  %47 = load ptr, ptr %4, align 8
  %48 = getelementptr inbounds %struct.GLNVGcontext, ptr %47, i32 0, i32 20
  store ptr %46, ptr %48, align 8
  %49 = load i32, ptr %9, align 4
  %50 = load ptr, ptr %4, align 8
  %51 = getelementptr inbounds %struct.GLNVGcontext, ptr %50, i32 0, i32 21
  store i32 %49, ptr %51, align 8
  br label %52

52:                                               ; preds = %45, %2
  %53 = load ptr, ptr %4, align 8
  %54 = getelementptr inbounds %struct.GLNVGcontext, ptr %53, i32 0, i32 22
  %55 = load i32, ptr %54, align 4
  %56 = load i32, ptr %7, align 4
  %57 = mul nsw i32 %55, %56
  store i32 %57, ptr %6, align 4
  %58 = load i32, ptr %5, align 4
  %59 = load ptr, ptr %4, align 8
  %60 = getelementptr inbounds %struct.GLNVGcontext, ptr %59, i32 0, i32 22
  %61 = load i32, ptr %60, align 4
  %62 = add nsw i32 %61, %58
  store i32 %62, ptr %60, align 4
  %63 = load i32, ptr %6, align 4
  store i32 %63, ptr %3, align 4
  br label %64

64:                                               ; preds = %52, %44
  %65 = load i32, ptr %3, align 4
  ret i32 %65
}

; Function Attrs: mustprogress nounwind uwtable
define internal noundef i32 @_ZL17glnvg__allocVertsP12GLNVGcontexti(ptr noundef %0, i32 noundef %1) #7 {
  %3 = alloca i32, align 4
  %4 = alloca ptr, align 8
  %5 = alloca i32, align 4
  %6 = alloca i32, align 4
  %7 = alloca ptr, align 8
  %8 = alloca i32, align 4
  store ptr %0, ptr %4, align 8
  store i32 %1, ptr %5, align 4
  store i32 0, ptr %6, align 4
  %9 = load ptr, ptr %4, align 8
  %10 = getelementptr inbounds %struct.GLNVGcontext, ptr %9, i32 0, i32 19
  %11 = load i32, ptr %10, align 4
  %12 = load i32, ptr %5, align 4
  %13 = add nsw i32 %11, %12
  %14 = load ptr, ptr %4, align 8
  %15 = getelementptr inbounds %struct.GLNVGcontext, ptr %14, i32 0, i32 18
  %16 = load i32, ptr %15, align 8
  %17 = icmp sgt i32 %13, %16
  br i1 %17, label %18, label %47

18:                                               ; preds = %2
  %19 = load ptr, ptr %4, align 8
  %20 = getelementptr inbounds %struct.GLNVGcontext, ptr %19, i32 0, i32 19
  %21 = load i32, ptr %20, align 4
  %22 = load i32, ptr %5, align 4
  %23 = add nsw i32 %21, %22
  %24 = call noundef i32 @_ZL11glnvg__maxiii(i32 noundef %23, i32 noundef 4096)
  %25 = load ptr, ptr %4, align 8
  %26 = getelementptr inbounds %struct.GLNVGcontext, ptr %25, i32 0, i32 18
  %27 = load i32, ptr %26, align 8
  %28 = sdiv i32 %27, 2
  %29 = add nsw i32 %24, %28
  store i32 %29, ptr %8, align 4
  %30 = load ptr, ptr %4, align 8
  %31 = getelementptr inbounds %struct.GLNVGcontext, ptr %30, i32 0, i32 17
  %32 = load ptr, ptr %31, align 8
  %33 = load i32, ptr %8, align 4
  %34 = sext i32 %33 to i64
  %35 = mul i64 16, %34
  %36 = call ptr @realloc(ptr noundef %32, i64 noundef %35) #22
  store ptr %36, ptr %7, align 8
  %37 = load ptr, ptr %7, align 8
  %38 = icmp eq ptr %37, null
  br i1 %38, label %39, label %40

39:                                               ; preds = %18
  store i32 -1, ptr %3, align 4
  br label %57

40:                                               ; preds = %18
  %41 = load ptr, ptr %7, align 8
  %42 = load ptr, ptr %4, align 8
  %43 = getelementptr inbounds %struct.GLNVGcontext, ptr %42, i32 0, i32 17
  store ptr %41, ptr %43, align 8
  %44 = load i32, ptr %8, align 4
  %45 = load ptr, ptr %4, align 8
  %46 = getelementptr inbounds %struct.GLNVGcontext, ptr %45, i32 0, i32 18
  store i32 %44, ptr %46, align 8
  br label %47

47:                                               ; preds = %40, %2
  %48 = load ptr, ptr %4, align 8
  %49 = getelementptr inbounds %struct.GLNVGcontext, ptr %48, i32 0, i32 19
  %50 = load i32, ptr %49, align 4
  store i32 %50, ptr %6, align 4
  %51 = load i32, ptr %5, align 4
  %52 = load ptr, ptr %4, align 8
  %53 = getelementptr inbounds %struct.GLNVGcontext, ptr %52, i32 0, i32 19
  %54 = load i32, ptr %53, align 4
  %55 = add nsw i32 %54, %51
  store i32 %55, ptr %53, align 4
  %56 = load i32, ptr %6, align 4
  store i32 %56, ptr %3, align 4
  br label %57

57:                                               ; preds = %47, %39
  %58 = load i32, ptr %3, align 4
  ret i32 %58
}

; Function Attrs: mustprogress uwtable
define internal noundef ptr @_ZL16glnvg__allocCallP12GLNVGcontext(ptr noundef %0) #4 {
  %2 = alloca ptr, align 8
  %3 = alloca ptr, align 8
  %4 = alloca ptr, align 8
  %5 = alloca ptr, align 8
  %6 = alloca i32, align 4
  store ptr %0, ptr %3, align 8
  store ptr null, ptr %4, align 8
  %7 = load ptr, ptr %3, align 8
  %8 = getelementptr inbounds %struct.GLNVGcontext, ptr %7, i32 0, i32 13
  %9 = load i32, ptr %8, align 4
  %10 = add nsw i32 %9, 1
  %11 = load ptr, ptr %3, align 8
  %12 = getelementptr inbounds %struct.GLNVGcontext, ptr %11, i32 0, i32 12
  %13 = load i32, ptr %12, align 8
  %14 = icmp sgt i32 %10, %13
  br i1 %14, label %15, label %43

15:                                               ; preds = %1
  %16 = load ptr, ptr %3, align 8
  %17 = getelementptr inbounds %struct.GLNVGcontext, ptr %16, i32 0, i32 13
  %18 = load i32, ptr %17, align 4
  %19 = add nsw i32 %18, 1
  %20 = call noundef i32 @_ZL11glnvg__maxiii(i32 noundef %19, i32 noundef 128)
  %21 = load ptr, ptr %3, align 8
  %22 = getelementptr inbounds %struct.GLNVGcontext, ptr %21, i32 0, i32 12
  %23 = load i32, ptr %22, align 8
  %24 = sdiv i32 %23, 2
  %25 = add nsw i32 %20, %24
  store i32 %25, ptr %6, align 4
  %26 = load ptr, ptr %3, align 8
  %27 = getelementptr inbounds %struct.GLNVGcontext, ptr %26, i32 0, i32 11
  %28 = load ptr, ptr %27, align 8
  %29 = load i32, ptr %6, align 4
  %30 = sext i32 %29 to i64
  %31 = mul i64 44, %30
  %32 = call ptr @realloc(ptr noundef %28, i64 noundef %31) #22
  store ptr %32, ptr %5, align 8
  %33 = load ptr, ptr %5, align 8
  %34 = icmp eq ptr %33, null
  br i1 %34, label %35, label %36

35:                                               ; preds = %15
  store ptr null, ptr %2, align 8
  br label %55

36:                                               ; preds = %15
  %37 = load ptr, ptr %5, align 8
  %38 = load ptr, ptr %3, align 8
  %39 = getelementptr inbounds %struct.GLNVGcontext, ptr %38, i32 0, i32 11
  store ptr %37, ptr %39, align 8
  %40 = load i32, ptr %6, align 4
  %41 = load ptr, ptr %3, align 8
  %42 = getelementptr inbounds %struct.GLNVGcontext, ptr %41, i32 0, i32 12
  store i32 %40, ptr %42, align 8
  br label %43

43:                                               ; preds = %36, %1
  %44 = load ptr, ptr %3, align 8
  %45 = getelementptr inbounds %struct.GLNVGcontext, ptr %44, i32 0, i32 11
  %46 = load ptr, ptr %45, align 8
  %47 = load ptr, ptr %3, align 8
  %48 = getelementptr inbounds %struct.GLNVGcontext, ptr %47, i32 0, i32 13
  %49 = load i32, ptr %48, align 4
  %50 = add nsw i32 %49, 1
  store i32 %50, ptr %48, align 4
  %51 = sext i32 %49 to i64
  %52 = getelementptr inbounds %struct.GLNVGcall, ptr %46, i64 %51
  store ptr %52, ptr %4, align 8
  %53 = load ptr, ptr %4, align 8
  call void @llvm.memset.p0.i64(ptr align 4 %53, i8 0, i64 44, i1 false)
  %54 = load ptr, ptr %4, align 8
  store ptr %54, ptr %2, align 8
  br label %55

55:                                               ; preds = %43, %35
  %56 = load ptr, ptr %2, align 8
  ret ptr %56
}

; Function Attrs: mustprogress uwtable
define internal void @_ZL22glnvg__renderTrianglesPvP8NVGpaint26NVGcompositeOperationStateP10NVGscissorPK9NVGvertexi(ptr noundef %0, ptr noundef %1, i64 %2, i64 %3, ptr noundef %4, ptr noundef %5, i32 noundef %6) #4 {
  %8 = alloca %struct.NVGcompositeOperationState, align 4
  %9 = alloca ptr, align 8
  %10 = alloca ptr, align 8
  %11 = alloca ptr, align 8
  %12 = alloca ptr, align 8
  %13 = alloca i32, align 4
  %14 = alloca ptr, align 8
  %15 = alloca ptr, align 8
  %16 = alloca ptr, align 8
  %17 = alloca %struct.GLNVGblend, align 4
  %18 = alloca %struct.NVGcompositeOperationState, align 4
  %19 = getelementptr inbounds { i64, i64 }, ptr %8, i32 0, i32 0
  store i64 %2, ptr %19, align 4
  %20 = getelementptr inbounds { i64, i64 }, ptr %8, i32 0, i32 1
  store i64 %3, ptr %20, align 4
  store ptr %0, ptr %9, align 8
  store ptr %1, ptr %10, align 8
  store ptr %4, ptr %11, align 8
  store ptr %5, ptr %12, align 8
  store i32 %6, ptr %13, align 4
  %21 = load ptr, ptr %9, align 8
  store ptr %21, ptr %14, align 8
  %22 = load ptr, ptr %14, align 8
  %23 = call noundef ptr @_ZL16glnvg__allocCallP12GLNVGcontext(ptr noundef %22)
  store ptr %23, ptr %15, align 8
  %24 = load ptr, ptr %15, align 8
  %25 = icmp eq ptr %24, null
  br i1 %25, label %26, label %27

26:                                               ; preds = %7
  br label %104

27:                                               ; preds = %7
  %28 = load ptr, ptr %15, align 8
  %29 = getelementptr inbounds %struct.GLNVGcall, ptr %28, i32 0, i32 0
  store i32 4, ptr %29, align 4
  %30 = load ptr, ptr %10, align 8
  %31 = getelementptr inbounds %struct.NVGpaint, ptr %30, i32 0, i32 6
  %32 = load i32, ptr %31, align 4
  %33 = load ptr, ptr %15, align 8
  %34 = getelementptr inbounds %struct.GLNVGcall, ptr %33, i32 0, i32 1
  store i32 %32, ptr %34, align 4
  call void @llvm.memcpy.p0.p0.i64(ptr align 4 %18, ptr align 4 %8, i64 16, i1 false)
  %35 = getelementptr inbounds { i64, i64 }, ptr %18, i32 0, i32 0
  %36 = load i64, ptr %35, align 4
  %37 = getelementptr inbounds { i64, i64 }, ptr %18, i32 0, i32 1
  %38 = load i64, ptr %37, align 4
  %39 = call { i64, i64 } @_ZL30glnvg__blendCompositeOperation26NVGcompositeOperationState(i64 %36, i64 %38)
  %40 = getelementptr inbounds { i64, i64 }, ptr %17, i32 0, i32 0
  %41 = extractvalue { i64, i64 } %39, 0
  store i64 %41, ptr %40, align 4
  %42 = getelementptr inbounds { i64, i64 }, ptr %17, i32 0, i32 1
  %43 = extractvalue { i64, i64 } %39, 1
  store i64 %43, ptr %42, align 4
  %44 = load ptr, ptr %15, align 8
  %45 = getelementptr inbounds %struct.GLNVGcall, ptr %44, i32 0, i32 7
  call void @llvm.memcpy.p0.p0.i64(ptr align 4 %45, ptr align 4 %17, i64 16, i1 false)
  %46 = load ptr, ptr %14, align 8
  %47 = load i32, ptr %13, align 4
  %48 = call noundef i32 @_ZL17glnvg__allocVertsP12GLNVGcontexti(ptr noundef %46, i32 noundef %47)
  %49 = load ptr, ptr %15, align 8
  %50 = getelementptr inbounds %struct.GLNVGcall, ptr %49, i32 0, i32 4
  store i32 %48, ptr %50, align 4
  %51 = load ptr, ptr %15, align 8
  %52 = getelementptr inbounds %struct.GLNVGcall, ptr %51, i32 0, i32 4
  %53 = load i32, ptr %52, align 4
  %54 = icmp eq i32 %53, -1
  br i1 %54, label %55, label %56

55:                                               ; preds = %27
  br label %94

56:                                               ; preds = %27
  %57 = load i32, ptr %13, align 4
  %58 = load ptr, ptr %15, align 8
  %59 = getelementptr inbounds %struct.GLNVGcall, ptr %58, i32 0, i32 5
  store i32 %57, ptr %59, align 4
  %60 = load ptr, ptr %14, align 8
  %61 = getelementptr inbounds %struct.GLNVGcontext, ptr %60, i32 0, i32 17
  %62 = load ptr, ptr %61, align 8
  %63 = load ptr, ptr %15, align 8
  %64 = getelementptr inbounds %struct.GLNVGcall, ptr %63, i32 0, i32 4
  %65 = load i32, ptr %64, align 4
  %66 = sext i32 %65 to i64
  %67 = getelementptr inbounds %struct.NVGvertex, ptr %62, i64 %66
  %68 = load ptr, ptr %12, align 8
  %69 = load i32, ptr %13, align 4
  %70 = sext i32 %69 to i64
  %71 = mul i64 16, %70
  call void @llvm.memcpy.p0.p0.i64(ptr align 4 %67, ptr align 4 %68, i64 %71, i1 false)
  %72 = load ptr, ptr %14, align 8
  %73 = call noundef i32 @_ZL24glnvg__allocFragUniformsP12GLNVGcontexti(ptr noundef %72, i32 noundef 1)
  %74 = load ptr, ptr %15, align 8
  %75 = getelementptr inbounds %struct.GLNVGcall, ptr %74, i32 0, i32 6
  store i32 %73, ptr %75, align 4
  %76 = load ptr, ptr %15, align 8
  %77 = getelementptr inbounds %struct.GLNVGcall, ptr %76, i32 0, i32 6
  %78 = load i32, ptr %77, align 4
  %79 = icmp eq i32 %78, -1
  br i1 %79, label %80, label %81

80:                                               ; preds = %56
  br label %94

81:                                               ; preds = %56
  %82 = load ptr, ptr %14, align 8
  %83 = load ptr, ptr %15, align 8
  %84 = getelementptr inbounds %struct.GLNVGcall, ptr %83, i32 0, i32 6
  %85 = load i32, ptr %84, align 4
  %86 = call noundef ptr @_ZL19nvg__fragUniformPtrP12GLNVGcontexti(ptr noundef %82, i32 noundef %85)
  store ptr %86, ptr %16, align 8
  %87 = load ptr, ptr %14, align 8
  %88 = load ptr, ptr %16, align 8
  %89 = load ptr, ptr %10, align 8
  %90 = load ptr, ptr %11, align 8
  %91 = call noundef i32 @_ZL19glnvg__convertPaintP12GLNVGcontextP17GLNVGfragUniformsP8NVGpaintP10NVGscissorfff(ptr noundef %87, ptr noundef %88, ptr noundef %89, ptr noundef %90, float noundef 1.000000e+00, float noundef 1.000000e+00, float noundef -1.000000e+00)
  %92 = load ptr, ptr %16, align 8
  %93 = getelementptr inbounds %struct.GLNVGfragUniforms, ptr %92, i32 0, i32 12
  store i32 3, ptr %93, align 4
  br label %104

94:                                               ; preds = %80, %55
  %95 = load ptr, ptr %14, align 8
  %96 = getelementptr inbounds %struct.GLNVGcontext, ptr %95, i32 0, i32 13
  %97 = load i32, ptr %96, align 4
  %98 = icmp sgt i32 %97, 0
  br i1 %98, label %99, label %104

99:                                               ; preds = %94
  %100 = load ptr, ptr %14, align 8
  %101 = getelementptr inbounds %struct.GLNVGcontext, ptr %100, i32 0, i32 13
  %102 = load i32, ptr %101, align 4
  %103 = add nsw i32 %102, -1
  store i32 %103, ptr %101, align 4
  br label %104

104:                                              ; preds = %99, %94, %81, %26
  ret void
}