; Function Attrs: mustprogress uwtable
define internal void @_ZL22glnvg__renderTrianglesPvP8NVGpaint26NVGcompositeOperationStateP10NVGscissorPK9NVGvertexi(ptr nocapture noundef %0, ptr noundef %1, i64 %2, i64 %3, ptr noundef %4, ptr nocapture noundef readonly %5, i32 noundef %6) #3 {
  %8 = getelementptr inbounds i8, ptr %0, i64 84
  %9 = load i32, ptr %8, align 4
  %10 = getelementptr inbounds i8, ptr %0, i64 80
  %11 = load i32, ptr %10, align 8
  %.not.i = icmp slt i32 %9, %11
  br i1 %.not.i, label %._crit_edge.i, label %12

._crit_edge.i:                                    ; preds = %7
  %.phi.trans.insert.i = getelementptr inbounds i8, ptr %0, i64 72
  %.pre.i = load ptr, ptr %.phi.trans.insert.i, align 8
  br label %24

12:                                               ; preds = %7
  %13 = tail call i32 @llvm.smax.i32(i32 %9, i32 127)
  %14 = add nuw nsw i32 %13, 1
  %15 = sdiv i32 %11, 2
  %16 = add nsw i32 %14, %15
  %17 = getelementptr inbounds i8, ptr %0, i64 72
  %18 = load ptr, ptr %17, align 8
  %19 = sext i32 %16 to i64
  %20 = mul nsw i64 %19, 44
  %21 = tail call ptr @realloc(ptr noundef %18, i64 noundef %20) #29
  %22 = icmp eq ptr %21, null
  br i1 %22, label %_ZL16glnvg__allocCallP12GLNVGcontext.exit.thread, label %23

23:                                               ; preds = %12
  store ptr %21, ptr %17, align 8
  store i32 %16, ptr %10, align 8
  %.pre17.i = load i32, ptr %8, align 4
  br label %24

24:                                               ; preds = %23, %._crit_edge.i
  %25 = phi i32 [ %9, %._crit_edge.i ], [ %.pre17.i, %23 ]
  %26 = phi ptr [ %.pre.i, %._crit_edge.i ], [ %21, %23 ]
  %27 = add nsw i32 %25, 1
  store i32 %27, ptr %8, align 4
  %28 = sext i32 %25 to i64
  %29 = getelementptr inbounds %struct.GLNVGcall, ptr %26, i64 %28
  %30 = getelementptr inbounds i8, ptr %29, i64 4
  tail call void @llvm.memset.p0.i64(ptr noundef nonnull align 4 dereferenceable(44) %30, i8 0, i64 40, i1 false)
  store i32 4, ptr %29, align 4
  %31 = getelementptr inbounds i8, ptr %1, i64 72
  %32 = load i32, ptr %31, align 4
  %33 = getelementptr inbounds i8, ptr %29, i64 4
  store i32 %32, ptr %33, align 4
  %34 = tail call fastcc { i64, i64 } @_ZL30glnvg__blendCompositeOperation26NVGcompositeOperationState(i64 %2, i64 %3)
  %35 = extractvalue { i64, i64 } %34, 0
  %36 = extractvalue { i64, i64 } %34, 1
  %37 = getelementptr inbounds i8, ptr %29, i64 28
  store i64 %35, ptr %37, align 4
  %.sroa.22.0..sroa_idx = getelementptr inbounds i8, ptr %29, i64 36
  store i64 %36, ptr %.sroa.22.0..sroa_idx, align 4
  %38 = getelementptr inbounds i8, ptr %0, i64 116
  %39 = load i32, ptr %38, align 4
  %40 = add nsw i32 %39, %6
  %41 = getelementptr inbounds i8, ptr %0, i64 112
  %42 = load i32, ptr %41, align 8
  %43 = icmp sgt i32 %40, %42
  br i1 %43, label %44, label %_ZL17glnvg__allocVertsP12GLNVGcontexti.exit

44:                                               ; preds = %24
  %45 = tail call noundef i32 @llvm.smax.i32(i32 %40, i32 4096)
  %46 = sdiv i32 %42, 2
  %47 = add nsw i32 %45, %46
  %48 = getelementptr inbounds i8, ptr %0, i64 104
  %49 = load ptr, ptr %48, align 8
  %50 = sext i32 %47 to i64
  %51 = shl nsw i64 %50, 4
  %52 = tail call ptr @realloc(ptr noundef %49, i64 noundef %51) #29
  %53 = icmp eq ptr %52, null
  br i1 %53, label %.sink.split, label %54

54:                                               ; preds = %44
  store ptr %52, ptr %48, align 8
  store i32 %47, ptr %41, align 8
  %.pre.i35 = load i32, ptr %38, align 4
  %.pre19.i = add nsw i32 %.pre.i35, %6
  br label %_ZL17glnvg__allocVertsP12GLNVGcontexti.exit

_ZL17glnvg__allocVertsP12GLNVGcontexti.exit:      ; preds = %24, %54
  %.pre-phi.i = phi i32 [ %.pre19.i, %54 ], [ %40, %24 ]
  %55 = phi i32 [ %.pre.i35, %54 ], [ %39, %24 ]
  store i32 %.pre-phi.i, ptr %38, align 4
  %56 = getelementptr inbounds i8, ptr %29, i64 16
  store i32 %55, ptr %56, align 4
  %57 = icmp eq i32 %55, -1
  br i1 %57, label %94, label %58

58:                                               ; preds = %_ZL17glnvg__allocVertsP12GLNVGcontexti.exit
  %59 = getelementptr inbounds i8, ptr %29, i64 20
  store i32 %6, ptr %59, align 4
  %60 = getelementptr inbounds i8, ptr %0, i64 104
  %61 = load ptr, ptr %60, align 8
  %62 = sext i32 %55 to i64
  %63 = getelementptr inbounds %struct.NVGvertex, ptr %61, i64 %62
  %64 = sext i32 %6 to i64
  %65 = shl nsw i64 %64, 4
  tail call void @llvm.memcpy.p0.p0.i64(ptr align 4 %63, ptr align 4 %5, i64 %65, i1 false)
  %66 = getelementptr inbounds i8, ptr %0, i64 64
  %67 = load i32, ptr %66, align 8
  %68 = getelementptr inbounds i8, ptr %0, i64 132
  %69 = load i32, ptr %68, align 4
  %70 = add nsw i32 %69, 1
  %71 = getelementptr inbounds i8, ptr %0, i64 128
  %72 = load i32, ptr %71, align 8
  %.not = icmp slt i32 %69, %72
  br i1 %.not, label %_ZL24glnvg__allocFragUniformsP12GLNVGcontexti.exit, label %73

73:                                               ; preds = %58
  %74 = tail call noundef i32 @llvm.smax.i32(i32 %70, i32 128)
  %75 = sdiv i32 %72, 2
  %76 = add nsw i32 %74, %75
  %77 = getelementptr inbounds i8, ptr %0, i64 120
  %78 = load ptr, ptr %77, align 8
  %79 = mul nsw i32 %76, %67
  %80 = sext i32 %79 to i64
  %81 = tail call ptr @realloc(ptr noundef %78, i64 noundef %80) #29
  %82 = icmp eq ptr %81, null
  br i1 %82, label %.sink.split, label %83

83:                                               ; preds = %73
  store ptr %81, ptr %77, align 8
  store i32 %76, ptr %71, align 8
  %.pre.i38 = load i32, ptr %68, align 4
  %.pre22.i = add nsw i32 %.pre.i38, 1
  br label %_ZL24glnvg__allocFragUniformsP12GLNVGcontexti.exit

_ZL24glnvg__allocFragUniformsP12GLNVGcontexti.exit: ; preds = %58, %83
  %.pre-phi.i36 = phi i32 [ %.pre22.i, %83 ], [ %70, %58 ]
  %84 = phi i32 [ %.pre.i38, %83 ], [ %69, %58 ]
  %85 = mul nsw i32 %84, %67
  store i32 %.pre-phi.i36, ptr %68, align 4
  %86 = getelementptr inbounds i8, ptr %29, i64 24
  store i32 %85, ptr %86, align 4
  %87 = icmp eq i32 %85, -1
  br i1 %87, label %94, label %88

88:                                               ; preds = %_ZL24glnvg__allocFragUniformsP12GLNVGcontexti.exit
  %89 = getelementptr i8, ptr %0, i64 120
  %.val = load ptr, ptr %89, align 8
  %90 = sext i32 %85 to i64
  %91 = getelementptr inbounds i8, ptr %.val, i64 %90
  tail call fastcc void @_ZL19glnvg__convertPaintP12GLNVGcontextP17GLNVGfragUniformsP8NVGpaintP10NVGscissorfff(ptr noundef nonnull %0, ptr noundef %91, ptr noundef nonnull %1, ptr noundef %4, float noundef 1.000000e+00, float noundef 1.000000e+00, float noundef -1.000000e+00)
  %92 = getelementptr inbounds i8, ptr %91, i64 172
  store i32 3, ptr %92, align 4
  br label %_ZL16glnvg__allocCallP12GLNVGcontext.exit.thread

.sink.split:                                      ; preds = %73, %44
  %.sink42 = phi i64 [ 16, %44 ], [ 24, %73 ]
  %93 = getelementptr inbounds i8, ptr %29, i64 %.sink42
  store i32 -1, ptr %93, align 4
  br label %94

94:                                               ; preds = %.sink.split, %_ZL24glnvg__allocFragUniformsP12GLNVGcontexti.exit, %_ZL17glnvg__allocVertsP12GLNVGcontexti.exit
  %95 = load i32, ptr %8, align 4
  %96 = icmp sgt i32 %95, 0
  br i1 %96, label %97, label %_ZL16glnvg__allocCallP12GLNVGcontext.exit.thread

97:                                               ; preds = %94
  %98 = add nsw i32 %95, -1
  store i32 %98, ptr %8, align 4
  br label %_ZL16glnvg__allocCallP12GLNVGcontext.exit.thread

_ZL16glnvg__allocCallP12GLNVGcontext.exit.thread: ; preds = %12, %97, %94, %88
  ret void
}